target datalayout = "e-m:e-p270:32:32-p271:32:32-p272:64:64-i64:64-i128:128-f80:128-n8:16:32:64-S128"
target triple = "x86_64-pc-linux-gnu"

%class.V3ErrorCode = type { i8 }

@.str.5 = private unnamed_addr constant [114 x i8] c"generated/home/dtcxzyw/WorkSpace/Projects/compilers/llvm-opt-benchmark/bench/verilator/verilator/src/V3String.cpp\00", align 1
@.str.40 = private unnamed_addr constant [53 x i8] c"Self-test failed 'editDistance(a, b)==expected' got=\00", align 1
@.str.41 = private unnamed_addr constant [11 x i8] c" expected=\00", align 1
@.str.42 = private unnamed_addr constant [53 x i8] c"Self-test failed 'editDistance(b, a)==expected' got=\00", align 1

; Function Attrs: mustprogress nounwind uwtable
define linkonce_odr dso_local void @_ZN11V3ErrorCodeC2ENS_2enE(ptr noundef nonnull align 1 dereferenceable(1) %0, i8 noundef zeroext %1) unnamed_addr #4 comdat align 2 {
  %3 = alloca ptr, align 8
  %4 = alloca i8, align 1
  store ptr %0, ptr %3, align 8, !tbaa !61
  store i8 %1, ptr %4, align 1, !tbaa !63
  %5 = load ptr, ptr %3, align 8
  %6 = getelementptr inbounds nuw %class.V3ErrorCode, ptr %5, i32 0, i32 0
  %7 = load i8, ptr %4, align 1, !tbaa !63
  store i8 %7, ptr %6, align 1, !tbaa !65
  ret void
}

; Function Attrs: mustprogress uwtable
define dso_local void @_ZN11VSpellCheck19selfTestDistanceOneERKNSt7__cxx1112basic_stringIcSt11char_traitsIcESaIcEEES7_j(ptr noundef nonnull align 8 dereferenceable(32) %0, ptr noundef nonnull align 8 dereferenceable(32) %1, i32 noundef %2) #5 align 2 {
  %4 = alloca ptr, align 8
  %5 = alloca ptr, align 8
  %6 = alloca i32, align 4
  %7 = alloca i32, align 4
  %8 = alloca i32, align 4
  %9 = alloca %class.V3ErrorCode, align 1
  %10 = alloca i32, align 4
  %11 = alloca i32, align 4
  %12 = alloca %class.V3ErrorCode, align 1
  store ptr %0, ptr %4, align 8, !tbaa !17
  store ptr %1, ptr %5, align 8, !tbaa !17
  store i32 %2, ptr %6, align 4, !tbaa !31
  br label %13

13:                                               ; preds = %3
  call void @llvm.lifetime.start.p0(i64 4, ptr %7) #3
  %14 = load ptr, ptr %4, align 8, !tbaa !17
  %15 = load ptr, ptr %5, align 8, !tbaa !17
  %16 = call noundef i32 @_ZN11VSpellCheck12editDistanceERKNSt7__cxx1112basic_stringIcSt11char_traitsIcESaIcEEES7_(ptr noundef nonnull align 8 dereferenceable(32) %14, ptr noundef nonnull align 8 dereferenceable(32) %15)
  store i32 %16, ptr %7, align 4, !tbaa !31
  call void @llvm.lifetime.start.p0(i64 4, ptr %8) #3
  %17 = load i32, ptr %6, align 4, !tbaa !31
  store i32 %17, ptr %8, align 4, !tbaa !31
  br label %18

18:                                               ; preds = %13
  %19 = load i32, ptr %7, align 4, !tbaa !31
  %20 = load i32, ptr %8, align 4, !tbaa !31
  %21 = icmp eq i32 %19, %20
  %22 = xor i1 %21, true
  %23 = xor i1 %22, true
  %24 = xor i1 %23, true
  %25 = zext i1 %24 to i64
  %26 = call i64 @llvm.expect.i64(i64 %25, i64 0)
  %27 = icmp ne i64 %26, 0
  br i1 %27, label %28, label %39

28:                                               ; preds = %18
  call void @_ZN11V3ErrorCodeC2ENS_2enE(ptr noundef nonnull align 1 dereferenceable(1) %9, i8 noundef zeroext 4)
  %29 = getelementptr inbounds nuw %class.V3ErrorCode, ptr %9, i32 0, i32 0
  %30 = load i8, ptr %29, align 1
  %31 = call noundef nonnull align 8 dereferenceable(112) ptr @_ZN7V3Error19v3errorPrepFileLineB5cxx11E11V3ErrorCodePKci(i8 %30, ptr noundef @.str.5, i32 noundef 669)
  %32 = call noundef nonnull align 8 dereferenceable(112) ptr @_ZN7V3Error10v3errorStrB5cxx11Ev()
  %33 = call noundef nonnull align 8 dereferenceable(8) ptr @_ZStlsISt11char_traitsIcEERSt13basic_ostreamIcT_ES5_PKc(ptr noundef nonnull align 8 dereferenceable(8) %32, ptr noundef @.str.40)
  %34 = load i32, ptr %7, align 4, !tbaa !31
  %35 = call noundef nonnull align 8 dereferenceable(8) ptr @_ZNSolsEj(ptr noundef nonnull align 8 dereferenceable(8) %33, i32 noundef %34)
  %36 = call noundef nonnull align 8 dereferenceable(8) ptr @_ZStlsISt11char_traitsIcEERSt13basic_ostreamIcT_ES5_PKc(ptr noundef nonnull align 8 dereferenceable(8) %35, ptr noundef @.str.41)
  %37 = load i32, ptr %8, align 4, !tbaa !31
  %38 = call noundef nonnull align 8 dereferenceable(8) ptr @_ZNSolsEj(ptr noundef nonnull align 8 dereferenceable(8) %36, i32 noundef %37)
  call void @_Z15v3errorEndFatalRNSt7__cxx1119basic_ostringstreamIcSt11char_traitsIcESaIcEEE(ptr noundef nonnull align 8 dereferenceable(112) %38) #23
  unreachable

39:                                               ; preds = %18
  br label %40

40:                                               ; preds = %39
  br label %41

41:                                               ; preds = %40
  call void @llvm.lifetime.end.p0(i64 4, ptr %8) #3
  call void @llvm.lifetime.end.p0(i64 4, ptr %7) #3
  br label %42

42:                                               ; preds = %41
  br label %43

43:                                               ; preds = %42
  call void @llvm.lifetime.start.p0(i64 4, ptr %10) #3
  %44 = load ptr, ptr %5, align 8, !tbaa !17
  %45 = load ptr, ptr %4, align 8, !tbaa !17
  %46 = call noundef i32 @_ZN11VSpellCheck12editDistanceERKNSt7__cxx1112basic_stringIcSt11char_traitsIcESaIcEEES7_(ptr noundef nonnull align 8 dereferenceable(32) %44, ptr noundef nonnull align 8 dereferenceable(32) %45)
  store i32 %46, ptr %10, align 4, !tbaa !31
  call void @llvm.lifetime.start.p0(i64 4, ptr %11) #3
  %47 = load i32, ptr %6, align 4, !tbaa !31
  store i32 %47, ptr %11, align 4, !tbaa !31
  br label %48

48:                                               ; preds = %43
  %49 = load i32, ptr %10, align 4, !tbaa !31
  %50 = load i32, ptr %11, align 4, !tbaa !31
  %51 = icmp eq i32 %49, %50
  %52 = xor i1 %51, true
  %53 = xor i1 %52, true
  %54 = xor i1 %53, true
  %55 = zext i1 %54 to i64
  %56 = call i64 @llvm.expect.i64(i64 %55, i64 0)
  %57 = icmp ne i64 %56, 0
  br i1 %57, label %58, label %69

58:                                               ; preds = %48
  call void @_ZN11V3ErrorCodeC2ENS_2enE(ptr noundef nonnull align 1 dereferenceable(1) %12, i8 noundef zeroext 4)
  %59 = getelementptr inbounds nuw %class.V3ErrorCode, ptr %12, i32 0, i32 0
  %60 = load i8, ptr %59, align 1
  %61 = call noundef nonnull align 8 dereferenceable(112) ptr @_ZN7V3Error19v3errorPrepFileLineB5cxx11E11V3ErrorCodePKci(i8 %60, ptr noundef @.str.5, i32 noundef 670)
  %62 = call noundef nonnull align 8 dereferenceable(112) ptr @_ZN7V3Error10v3errorStrB5cxx11Ev()
  %63 = call noundef nonnull align 8 dereferenceable(8) ptr @_ZStlsISt11char_traitsIcEERSt13basic_ostreamIcT_ES5_PKc(ptr noundef nonnull align 8 dereferenceable(8) %62, ptr noundef @.str.42)
  %64 = load i32, ptr %10, align 4, !tbaa !31
  %65 = call noundef nonnull align 8 dereferenceable(8) ptr @_ZNSolsEj(ptr noundef nonnull align 8 dereferenceable(8) %63, i32 noundef %64)
  %66 = call noundef nonnull align 8 dereferenceable(8) ptr @_ZStlsISt11char_traitsIcEERSt13basic_ostreamIcT_ES5_PKc(ptr noundef nonnull align 8 dereferenceable(8) %65, ptr noundef @.str.41)
  %67 = load i32, ptr %11, align 4, !tbaa !31
  %68 = call noundef nonnull align 8 dereferenceable(8) ptr @_ZNSolsEj(ptr noundef nonnull align 8 dereferenceable(8) %66, i32 noundef %67)
  call void @_Z15v3errorEndFatalRNSt7__cxx1119basic_ostringstreamIcSt11char_traitsIcESaIcEEE(ptr noundef nonnull align 8 dereferenceable(112) %68) #23
  unreachable

69:                                               ; preds = %48
  br label %70

70:                                               ; preds = %69
  br label %71

71:                                               ; preds = %70
  call void @llvm.lifetime.end.p0(i64 4, ptr %11) #3
  call void @llvm.lifetime.end.p0(i64 4, ptr %10) #3
  br label %72

72:                                               ; preds = %71
  ret void
}